; Function Attrs: mustprogress nobuiltin nounwind allocsize(0) uwtable
define dso_local noalias noundef ptr @_ZnwmRKSt9nothrow_t(i64 noundef %0, ptr noundef nonnull align 1 dereferenceable(1) %1) local_unnamed_addr #5 personality ptr @__gxx_personality_v0 {
  %3 = load ptr, ptr @_ZN6google10g_new_hookE, align 8
  %.not = icmp eq ptr %3, null
  br i1 %.not, label %5, label %4

4:                                                ; preds = %2
  invoke void %3()
          to label %5 unwind label %7

5:                                                ; preds = %4, %2
  %6 = tail call noalias ptr @malloc(i64 noundef %0) #26
  ret ptr %6

7:                                                ; preds = %4
  %8 = landingpad { ptr, i32 }
          catch ptr null
  %9 = extractvalue { ptr, i32 } %8, 0
  tail call void @__clang_call_terminate(ptr %9) #25
  unreachable
}